target datalayout = "e-m:e-p270:32:32-p271:32:32-p272:64:64-i64:64-i128:128-f80:128-n8:16:32:64-S128"
target triple = "x86_64-unknown-linux-gnu"

%struct.CPUState = type { %struct.DeviceState, ptr, i32, i32, ptr, i32, i8, i8, ptr, i8, i8, i8, i8, i8, i8, i8, i8, i32, i32, i32, i32, i64, i64, i64, [1 x %struct.__jmp_buf_tag], %struct.QemuMutex, %struct.anon, ptr, i32, ptr, ptr, ptr, ptr, i32, i32, %union.anon, %union.anon.0, %union.anon.1, ptr, ptr, i64, i32, ptr, ptr, ptr, i32, i64, i32, %struct.QemuLockCnt, [1 x i64], ptr, i32, i32, i32, i32, i32, ptr, i8, i8, i64, i8, i8, ptr, [8 x i8], [0 x i8], %struct.CPUNegativeOffsetState }
%struct.DeviceState = type { %struct.Object, ptr, ptr, i8, i8, i64, ptr, i32, i8, ptr, %struct.NamedGPIOListHead, %struct.NamedClockListHead, %struct.BusStateHead, i32, i32, i32, %struct.ResettableState, ptr, %struct.MemReentrancyGuard }
%struct.Object = type { ptr, ptr, ptr, i32, ptr }
%struct.NamedGPIOListHead = type { ptr }
%struct.NamedClockListHead = type { ptr }
%struct.BusStateHead = type { ptr }
%struct.ResettableState = type { i32, i8, i8 }
%struct.MemReentrancyGuard = type { i8 }
%struct.__jmp_buf_tag = type { [8 x i64], i32, %struct.__sigset_t }
%struct.__sigset_t = type { [16 x i64] }
%struct.QemuMutex = type { %union.pthread_mutex_t, i8 }
%union.pthread_mutex_t = type { %struct.__pthread_mutex_s }
%struct.__pthread_mutex_s = type { i32, i32, i32, i32, i32, i16, i16, %struct.__pthread_internal_list }
%struct.__pthread_internal_list = type { ptr, ptr }
%struct.anon = type { ptr, ptr }
%union.anon = type { %struct.QTailQLink }
%struct.QTailQLink = type { ptr, ptr }
%union.anon.0 = type { %struct.QTailQLink }
%union.anon.1 = type { %struct.QTailQLink }
%struct.QemuLockCnt = type { i32 }
%struct.CPUNegativeOffsetState = type { %struct.CPUTLB, %union.IcountDecr, i8, [11 x i8] }
%struct.CPUTLB = type { %struct.CPUTLBCommon, [16 x %struct.CPUTLBDesc], [16 x %struct.CPUTLBDescFast] }
%struct.CPUTLBCommon = type { %struct.QemuSpin, i16, i64, i64, i64 }
%struct.QemuSpin = type { i32 }
%struct.CPUTLBDesc = type { i64, i64, i64, i64, i64, i64, [8 x %union.CPUTLBEntry], [8 x %struct.CPUTLBEntryFull], ptr }
%union.CPUTLBEntry = type { %struct.anon.2 }
%struct.anon.2 = type { i64, i64, i64, i64 }
%struct.CPUTLBEntryFull = type { i64, i64, %struct.MemTxAttrs, i8, i8, [3 x i8], %union.anon.3 }
%struct.MemTxAttrs = type { i32 }
%union.anon.3 = type { %struct.anon.4 }
%struct.anon.4 = type { i8, i8, i8 }
%struct.CPUTLBDescFast = type { i64, ptr }
%union.IcountDecr = type { i32 }
%struct.CPUArchState = type { [32 x i64], [32 x i64], [512 x i64], i64, i64, i64, i64, i64, i8, i64, i64, i64, [32 x i64], i64, %struct.float_status, i64, i64, i64, i64, i64, i64, i32, i32, i32, i32, i32, i64, i64, i32, i64, i64, ptr, ptr, i8, i64, i64, [8 x i8] }
%struct.float_status = type { i16, i8, i8, i8, i8, i8, i8, i8, i8, i8, i8, i8 }
%struct.ArchCPU = type { %struct.CPUState, %struct.CPUArchState, ptr, ptr, %struct.RISCVCPUConfig, ptr, i32, ptr }
%struct.RISCVCPUConfig = type { i8, i8, i8, i8, i8, i8, i8, i8, i8, i8, i8, i8, i8, i8, i8, i8, i8, i8, i8, i8, i8, i8, i8, i8, i8, i8, i8, i8, i8, i8, i8, i8, i8, i8, i8, i8, i8, i8, i8, i8, i8, i8, i8, i8, i8, i8, i8, i8, i8, i8, i8, i8, i8, i8, i8, i8, i8, i8, i8, i8, i8, i8, i8, i8, i8, i8, i8, i8, i8, i8, i8, i8, i8, i8, i8, i8, i8, i8, i32, i64, i64, i8, i8, i8, i8, i8, i8, i8, i8, i8, i8, i8, i8, i32, ptr, ptr, ptr, ptr, i16, i16, i16, i16, i8, i8, i8, i8, i8 }

; Function Attrs: nounwind sspstrong uwtable
define internal ptr @probe_write(ptr noundef %env, i64 noundef %addr, i32 noundef %size, i32 noundef %mmu_idx, i64 noundef %retaddr) #1 {
entry:
  %env.addr = alloca ptr, align 8
  %addr.addr = alloca i64, align 8
  %size.addr = alloca i32, align 4
  %mmu_idx.addr = alloca i32, align 4
  %retaddr.addr = alloca i64, align 8
  store ptr %env, ptr %env.addr, align 8
  store i64 %addr, ptr %addr.addr, align 8
  store i32 %size, ptr %size.addr, align 4
  store i32 %mmu_idx, ptr %mmu_idx.addr, align 4
  store i64 %retaddr, ptr %retaddr.addr, align 8
  %0 = load ptr, ptr %env.addr, align 8
  %1 = load i64, ptr %addr.addr, align 8
  %2 = load i32, ptr %size.addr, align 4
  %3 = load i32, ptr %mmu_idx.addr, align 4
  %4 = load i64, ptr %retaddr.addr, align 8
  %call = call ptr @probe_access(ptr noundef %0, i64 noundef %1, i32 noundef %2, i32 noundef 1, i32 noundef %3, i64 noundef %4)
  ret ptr %call
}

; Function Attrs: nounwind sspstrong uwtable
define internal ptr @env_archcpu(ptr noundef %env) #1 {
entry:
  %env.addr = alloca ptr, align 8
  store ptr %env, ptr %env.addr, align 8
  %0 = load ptr, ptr %env.addr, align 8
  %add.ptr = getelementptr i8, ptr %0, i64 -10176
  ret ptr %add.ptr
}

; Function Attrs: nounwind sspstrong uwtable
define internal void @check_zicbom_access(ptr noundef %env, i64 noundef %address, i64 noundef %ra) #1 {
entry:
  %env.addr = alloca ptr, align 8
  %address.addr = alloca i64, align 8
  %ra.addr = alloca i64, align 8
  %cpu = alloca ptr, align 8
  %mmu_idx = alloca i32, align 4
  %cbomlen = alloca i16, align 2
  %phost = alloca ptr, align 8
  %ret = alloca i32, align 4
  store ptr %env, ptr %env.addr, align 8
  store i64 %address, ptr %address.addr, align 8
  store i64 %ra, ptr %ra.addr, align 8
  %0 = load ptr, ptr %env.addr, align 8
  %call = call ptr @env_archcpu(ptr noundef %0)
  store ptr %call, ptr %cpu, align 8
  %1 = load ptr, ptr %env.addr, align 8
  %call1 = call i32 @riscv_cpu_mmu_index(ptr noundef %1, i1 noundef zeroext false)
  store i32 %call1, ptr %mmu_idx, align 4
  %2 = load ptr, ptr %cpu, align 8
  %cfg = getelementptr inbounds %struct.ArchCPU, ptr %2, i32 0, i32 4
  %cbom_blocksize = getelementptr inbounds %struct.RISCVCPUConfig, ptr %cfg, i32 0, i32 100
  %3 = load i16, ptr %cbom_blocksize, align 4
  store i16 %3, ptr %cbomlen, align 2
  %4 = load i16, ptr %cbomlen, align 2
  %conv = zext i16 %4 to i32
  %sub = sub i32 %conv, 1
  %not = xor i32 %sub, -1
  %conv2 = sext i32 %not to i64
  %5 = load i64, ptr %address.addr, align 8
  %and = and i64 %5, %conv2
  store i64 %and, ptr %address.addr, align 8
  %6 = load ptr, ptr %env.addr, align 8
  %7 = load i64, ptr %address.addr, align 8
  %8 = load i16, ptr %cbomlen, align 2
  %conv3 = zext i16 %8 to i32
  %9 = load i32, ptr %mmu_idx, align 4
  %10 = load i64, ptr %ra.addr, align 8
  %call4 = call i32 @probe_access_flags(ptr noundef %6, i64 noundef %7, i32 noundef %conv3, i32 noundef 0, i32 noundef %9, i1 noundef zeroext true, ptr noundef %phost, i64 noundef %10)
  store i32 %call4, ptr %ret, align 4
  %11 = load i32, ptr %ret, align 4
  %cmp = icmp ne i32 %11, 2048
  br i1 %cmp, label %if.then, label %if.end

if.then:                                          ; preds = %entry
  br label %return

if.end:                                           ; preds = %entry
  %12 = load ptr, ptr %env.addr, align 8
  %13 = load i64, ptr %address.addr, align 8
  %14 = load i16, ptr %cbomlen, align 2
  %conv6 = zext i16 %14 to i32
  %15 = load i32, ptr %mmu_idx, align 4
  %16 = load i64, ptr %ra.addr, align 8
  %call7 = call ptr @probe_write(ptr noundef %12, i64 noundef %13, i32 noundef %conv6, i32 noundef %15, i64 noundef %16)
  br label %return

return:                                           ; preds = %if.end, %if.then
  ret void
}

; Function Attrs: nounwind sspstrong uwtable
define internal void @check_zicbo_envcfg(ptr noundef %env, i64 noundef %envbits, i64 noundef %ra) #1 {
entry:
  %env.addr = alloca ptr, align 8
  %envbits.addr = alloca i64, align 8
  %ra.addr = alloca i64, align 8
  store ptr %env, ptr %env.addr, align 8
  store i64 %envbits, ptr %envbits.addr, align 8
  store i64 %ra, ptr %ra.addr, align 8
  ret void
}

; Function Attrs: nounwind sspstrong uwtable
define dso_local void @helper_cbo_inval(ptr noundef %env, i64 noundef %address) #1 {
entry:
  %env.addr = alloca ptr, align 8
  %address.addr = alloca i64, align 8
  %ra = alloca i64, align 8
  store ptr %env, ptr %env.addr, align 8
  store i64 %address, ptr %address.addr, align 8
  %0 = call ptr @llvm.returnaddress(i32 0)
  %1 = ptrtoint ptr %0 to i64
  store i64 %1, ptr %ra, align 8
  %2 = load ptr, ptr %env.addr, align 8
  %3 = load i64, ptr %ra, align 8
  call void @check_zicbo_envcfg(ptr noundef %2, i64 noundef 48, i64 noundef %3)
  %4 = load ptr, ptr %env.addr, align 8
  %5 = load i64, ptr %address.addr, align 8
  %6 = load i64, ptr %ra, align 8
  call void @check_zicbom_access(ptr noundef %4, i64 noundef %5, i64 noundef %6)
  ret void
}