; Function Attrs: nounwind sspstrong uwtable
define dso_local void @helper_cbo_inval(ptr noundef %env, i64 noundef %address) local_unnamed_addr #2 {
entry:
  %phost.i = alloca ptr, align 8
  %0 = tail call ptr @llvm.returnaddress(i32 0)
  %1 = ptrtoint ptr %0 to i64
  call void @llvm.lifetime.start.p0(i64 8, ptr nonnull %phost.i)
  %call1.i = tail call i32 @riscv_cpu_mmu_index(ptr noundef %env, i1 noundef zeroext false) #9
  %cbom_blocksize.i = getelementptr i8, ptr %env, i64 5292
  %2 = load i16, ptr %cbom_blocksize.i, align 4
  %conv.i = zext i16 %2 to i32
  %not.i = sub nsw i32 0, %conv.i
  %conv2.i = sext i32 %not.i to i64
  %and.i = and i64 %address, %conv2.i
  %call4.i = call i32 @probe_access_flags(ptr noundef %env, i64 noundef %and.i, i32 noundef %conv.i, i32 noundef 0, i32 noundef %call1.i, i1 noundef zeroext true, ptr noundef nonnull %phost.i, i64 noundef %1) #9
  %cmp.not.i = icmp eq i32 %call4.i, 2048
  br i1 %cmp.not.i, label %if.end.i, label %check_zicbom_access.exit

if.end.i:                                         ; preds = %entry
  %call.i.i = call ptr @probe_access(ptr noundef nonnull %env, i64 noundef %and.i, i32 noundef range(i32 0, 65536) %conv.i, i32 noundef 1, i32 noundef %call1.i, i64 noundef %1) #9
  br label %check_zicbom_access.exit

check_zicbom_access.exit:                         ; preds = %entry, %if.end.i
  call void @llvm.lifetime.end.p0(i64 8, ptr nonnull %phost.i)
  ret void
}